; Function Attrs: noreturn nounwind uwtable
define internal fastcc void @BUG_vfl(ptr noundef %0, i32 noundef %1, ptr noundef %2, ptr noundef nonnull %3) unnamed_addr #3 {
  %5 = alloca [256 x i8], align 16
  %6 = alloca [1 x %struct.__va_list_tag], align 16
  call void @llvm.lifetime.start.p0(i64 24, ptr nonnull %6) #17
  call void @llvm.va_copy.p0(ptr nonnull %6, ptr nonnull %3)
  call void @llvm.lifetime.start.p0(i64 256, ptr nonnull %5) #17
  %7 = call i32 (ptr, i64, ptr, ...) @snprintf(ptr noundef nonnull dereferenceable(1) %5, i64 noundef 256, ptr noundef nonnull @.str.15, ptr noundef %0, i32 noundef %1) #17
  %8 = load ptr, ptr @stderr, align 8, !tbaa !10
  call fastcc void @vfreportf(ptr noundef %8, ptr noundef nonnull %5, ptr noundef %2, ptr noundef nonnull %3)
  call void @llvm.lifetime.end.p0(i64 256, ptr nonnull %5) #17
  %.b = load i1, ptr @BUG_vfl.in_bug, align 4
  br i1 %.b, label %9, label %10

9:                                                ; preds = %4
  call void @abort() #19
  unreachable

10:                                               ; preds = %4
  store i1 true, ptr @BUG_vfl.in_bug, align 4
  call void @trace2_cmd_error_va_fl(ptr noundef nonnull @.str.3, i32 noundef 342, ptr noundef %2, ptr noundef nonnull %6) #17
  %11 = load i32, ptr @BUG_exit_code, align 4, !tbaa !12
  %.not = icmp eq i32 %11, 0
  br i1 %.not, label %14, label %12

12:                                               ; preds = %10
  %13 = call i32 @common_exit(ptr noundef nonnull @.str.3, i32 noundef 345, i32 noundef %11) #17
  call void @exit(i32 noundef %13) #19
  unreachable

14:                                               ; preds = %10
  call void @abort() #19
  unreachable
}